target datalayout = "e-m:e-p270:32:32-p271:32:32-p272:64:64-i64:64-i128:128-f80:128-n8:16:32:64-S128"
target triple = "x86_64-pc-linux-gnu"

%"class.open3d::visualization::ViewControlWithCustomAnimation" = type { %"class.open3d::visualization::ViewControl.base", i32, %"class.open3d::visualization::ViewTrajectory", double, double }
%"class.open3d::visualization::ViewControl.base" = type { ptr, i32, i32, %"class.open3d::geometry::AxisAlignedBoundingBox", %"class.Eigen::Matrix", %"class.Eigen::Matrix", %"class.Eigen::Matrix", %"class.Eigen::Matrix", %"class.Eigen::Matrix", double, double, double, double, double, double, double, double, double, [8 x i8], %"class.Eigen::Matrix.18", %"class.Eigen::Matrix.18", %"class.Eigen::Matrix.18", %"class.Eigen::Matrix.18", %"class.Eigen::Matrix", %"class.Eigen::Matrix", %"class.Eigen::Matrix", %"class.Eigen::Matrix", %"class.Eigen::Matrix", double, double }
%"class.open3d::geometry::AxisAlignedBoundingBox" = type { %"class.open3d::geometry::Geometry3D", %"class.Eigen::Matrix", %"class.Eigen::Matrix", %"class.Eigen::Matrix" }
%"class.open3d::geometry::Geometry3D" = type { %"class.open3d::geometry::Geometry" }
%"class.open3d::geometry::Geometry" = type { ptr, i32, i32, %"class.std::__cxx11::basic_string" }
%"class.std::__cxx11::basic_string" = type { %"struct.std::__cxx11::basic_string<char>::_Alloc_hider", i64, %union.anon }
%"struct.std::__cxx11::basic_string<char>::_Alloc_hider" = type { ptr }
%union.anon = type { i64, [8 x i8] }
%"class.Eigen::Matrix.18" = type { %"class.Eigen::PlainObjectBase.19" }
%"class.Eigen::PlainObjectBase.19" = type { %"class.Eigen::DenseStorage.26" }
%"class.Eigen::DenseStorage.26" = type { %"struct.Eigen::internal::plain_array.27" }
%"struct.Eigen::internal::plain_array.27" = type { [16 x float] }
%"class.Eigen::Matrix" = type { %"class.Eigen::PlainObjectBase" }
%"class.Eigen::PlainObjectBase" = type { %"class.Eigen::DenseStorage" }
%"class.Eigen::DenseStorage" = type { %"struct.Eigen::internal::plain_array" }
%"struct.Eigen::internal::plain_array" = type { [3 x double] }
%"class.open3d::visualization::ViewTrajectory" = type { %"class.open3d::utility::IJsonConvertible", %"class.std::vector", i8, i32, %"class.std::vector.31" }
%"class.open3d::utility::IJsonConvertible" = type { ptr }
%"class.std::vector" = type { %"struct.std::_Vector_base" }
%"struct.std::_Vector_base" = type { %"struct.std::_Vector_base<open3d::visualization::ViewParameters, std::allocator<open3d::visualization::ViewParameters>>::_Vector_impl" }
%"struct.std::_Vector_base<open3d::visualization::ViewParameters, std::allocator<open3d::visualization::ViewParameters>>::_Vector_impl" = type { %"struct.std::_Vector_base<open3d::visualization::ViewParameters, std::allocator<open3d::visualization::ViewParameters>>::_Vector_impl_data" }
%"struct.std::_Vector_base<open3d::visualization::ViewParameters, std::allocator<open3d::visualization::ViewParameters>>::_Vector_impl_data" = type { ptr, ptr, ptr }
%"class.std::vector.31" = type { %"struct.std::_Vector_base.32" }
%"struct.std::_Vector_base.32" = type { %"struct.std::_Vector_base<Eigen::Matrix<double, 17, 4, 1>, Eigen::aligned_allocator<Eigen::Matrix<double, 17, 4, 1>>>::_Vector_impl" }
%"struct.std::_Vector_base<Eigen::Matrix<double, 17, 4, 1>, Eigen::aligned_allocator<Eigen::Matrix<double, 17, 4, 1>>>::_Vector_impl" = type { %"struct.std::_Vector_base<Eigen::Matrix<double, 17, 4, 1>, Eigen::aligned_allocator<Eigen::Matrix<double, 17, 4, 1>>>::_Vector_impl_data" }
%"struct.std::_Vector_base<Eigen::Matrix<double, 17, 4, 1>, Eigen::aligned_allocator<Eigen::Matrix<double, 17, 4, 1>>>::_Vector_impl_data" = type { ptr, ptr, ptr }
%"class.open3d::visualization::ViewParameters" = type { %"class.open3d::utility::IJsonConvertible", double, double, %"class.Eigen::Matrix", %"class.Eigen::Matrix", %"class.Eigen::Matrix", %"class.Eigen::Matrix", %"class.Eigen::Matrix" }

@_ZN6open3d13visualization14ViewTrajectory16INTERVAL_DEFAULTE = external constant i32, align 4

; Function Attrs: inlinehint mustprogress nounwind ssp uwtable
define linkonce_odr void @_ZSt8_DestroyIN6open3d13visualization14ViewParametersEEvPT_(ptr noundef %0) #7 comdat {
  %2 = alloca ptr, align 8
  store ptr %0, ptr %2, align 8, !tbaa !190
  %3 = load ptr, ptr %2, align 8, !tbaa !190
  %4 = load ptr, ptr %3, align 8, !tbaa !9
  %5 = getelementptr inbounds ptr, ptr %4, i64 0
  %6 = load ptr, ptr %5, align 8
  call void %6(ptr noundef nonnull align 8 dereferenceable(144) %3) #8
  ret void
}

; Function Attrs: mustprogress ssp uwtable
define linkonce_odr void @_ZNSt12_Destroy_auxILb0EE9__destroyIPN6open3d13visualization14ViewParametersEEEvT_S6_(ptr noundef %0, ptr noundef %1) #1 comdat align 2 {
  %3 = alloca ptr, align 8
  %4 = alloca ptr, align 8
  store ptr %0, ptr %3, align 8, !tbaa !190
  store ptr %1, ptr %4, align 8, !tbaa !190
  br label %5

5:                                                ; preds = %11, %2
  %6 = load ptr, ptr %3, align 8, !tbaa !190
  %7 = load ptr, ptr %4, align 8, !tbaa !190
  %8 = icmp ne ptr %6, %7
  br i1 %8, label %9, label %14

9:                                                ; preds = %5
  %10 = load ptr, ptr %3, align 8, !tbaa !190
  call void @_ZSt8_DestroyIN6open3d13visualization14ViewParametersEEvPT_(ptr noundef %10)
  br label %11

11:                                               ; preds = %9
  %12 = load ptr, ptr %3, align 8, !tbaa !190
  %13 = getelementptr inbounds nuw %"class.open3d::visualization::ViewParameters", ptr %12, i32 1
  store ptr %13, ptr %3, align 8, !tbaa !190
  br label %5, !llvm.loop !233

14:                                               ; preds = %5
  ret void
}

; Function Attrs: inlinehint mustprogress ssp uwtable
define linkonce_odr void @_ZSt8_DestroyIPN6open3d13visualization14ViewParametersEEvT_S4_(ptr noundef %0, ptr noundef %1) #16 comdat {
  %3 = alloca ptr, align 8
  %4 = alloca ptr, align 8
  store ptr %0, ptr %3, align 8, !tbaa !190
  store ptr %1, ptr %4, align 8, !tbaa !190
  %5 = load ptr, ptr %3, align 8, !tbaa !190
  %6 = load ptr, ptr %4, align 8, !tbaa !190
  call void @_ZNSt12_Destroy_auxILb0EE9__destroyIPN6open3d13visualization14ViewParametersEEEvT_S6_(ptr noundef %5, ptr noundef %6)
  ret void
}

; Function Attrs: noinline noreturn nounwind ssp uwtable
define linkonce_odr hidden void @__clang_call_terminate(ptr noundef %0) #14 comdat {
  %2 = call ptr @__cxa_begin_catch(ptr %0) #8
  call void @_ZSt9terminatev() #34
  unreachable
}

; Function Attrs: alwaysinline mustprogress ssp uwtable
define linkonce_odr void @_ZSt8_DestroyIPN6open3d13visualization14ViewParametersES2_EvT_S4_RSaIT0_E(ptr noundef %0, ptr noundef %1, ptr noundef nonnull align 1 dereferenceable(1) %2) #10 comdat {
  %4 = alloca ptr, align 8
  %5 = alloca ptr, align 8
  %6 = alloca ptr, align 8
  store ptr %0, ptr %4, align 8, !tbaa !190
  store ptr %1, ptr %5, align 8, !tbaa !190
  store ptr %2, ptr %6, align 8, !tbaa !225
  %7 = load ptr, ptr %4, align 8, !tbaa !190
  %8 = load ptr, ptr %5, align 8, !tbaa !190
  call void @_ZSt8_DestroyIPN6open3d13visualization14ViewParametersEEvT_S4_(ptr noundef %7, ptr noundef %8)
  ret void
}

; Function Attrs: mustprogress nounwind ssp uwtable
define linkonce_odr noundef nonnull align 1 dereferenceable(1) ptr @_ZNSt12_Vector_baseIN6open3d13visualization14ViewParametersESaIS2_EE19_M_get_Tp_allocatorEv(ptr noundef nonnull align 8 dereferenceable(24) %0) #0 comdat align 2 {
  %2 = alloca ptr, align 8
  store ptr %0, ptr %2, align 8, !tbaa !230
  %3 = load ptr, ptr %2, align 8
  %4 = getelementptr inbounds nuw %"struct.std::_Vector_base", ptr %3, i32 0, i32 0
  ret ptr %4
}

; Function Attrs: mustprogress nounwind ssp uwtable
define linkonce_odr void @_ZNSt6vectorIN6open3d13visualization14ViewParametersESaIS2_EE15_M_erase_at_endEPS2_(ptr noundef nonnull align 8 dereferenceable(24) %0, ptr noundef %1) #0 comdat align 2 personality ptr @__gxx_personality_v0 {
  %3 = alloca ptr, align 8
  %4 = alloca ptr, align 8
  %5 = alloca i64, align 8
  store ptr %0, ptr %3, align 8, !tbaa !186
  store ptr %1, ptr %4, align 8, !tbaa !190
  %6 = load ptr, ptr %3, align 8
  call void @llvm.lifetime.start.p0(i64 8, ptr %5) #8
  %7 = getelementptr inbounds nuw %"struct.std::_Vector_base", ptr %6, i32 0, i32 0
  %8 = getelementptr inbounds nuw %"struct.std::_Vector_base<open3d::visualization::ViewParameters, std::allocator<open3d::visualization::ViewParameters>>::_Vector_impl_data", ptr %7, i32 0, i32 1
  %9 = load ptr, ptr %8, align 8, !tbaa !201
  %10 = load ptr, ptr %4, align 8, !tbaa !190
  %11 = ptrtoint ptr %9 to i64
  %12 = ptrtoint ptr %10 to i64
  %13 = sub i64 %11, %12
  %14 = sdiv exact i64 %13, 144
  store i64 %14, ptr %5, align 8, !tbaa !70
  %15 = load i64, ptr %5, align 8, !tbaa !70
  %16 = icmp ne i64 %15, 0
  br i1 %16, label %17, label %27

17:                                               ; preds = %2
  %18 = load ptr, ptr %4, align 8, !tbaa !190
  %19 = getelementptr inbounds nuw %"struct.std::_Vector_base", ptr %6, i32 0, i32 0
  %20 = getelementptr inbounds nuw %"struct.std::_Vector_base<open3d::visualization::ViewParameters, std::allocator<open3d::visualization::ViewParameters>>::_Vector_impl_data", ptr %19, i32 0, i32 1
  %21 = load ptr, ptr %20, align 8, !tbaa !201
  %22 = call noundef nonnull align 1 dereferenceable(1) ptr @_ZNSt12_Vector_baseIN6open3d13visualization14ViewParametersESaIS2_EE19_M_get_Tp_allocatorEv(ptr noundef nonnull align 8 dereferenceable(24) %6) #8
  invoke void @_ZSt8_DestroyIPN6open3d13visualization14ViewParametersES2_EvT_S4_RSaIT0_E(ptr noundef %18, ptr noundef %21, ptr noundef nonnull align 1 dereferenceable(1) %22)
          to label %23 unwind label %28

23:                                               ; preds = %17
  %24 = load ptr, ptr %4, align 8, !tbaa !190
  %25 = getelementptr inbounds nuw %"struct.std::_Vector_base", ptr %6, i32 0, i32 0
  %26 = getelementptr inbounds nuw %"struct.std::_Vector_base<open3d::visualization::ViewParameters, std::allocator<open3d::visualization::ViewParameters>>::_Vector_impl_data", ptr %25, i32 0, i32 1
  store ptr %24, ptr %26, align 8, !tbaa !201
  br label %27

27:                                               ; preds = %23, %2
  call void @llvm.lifetime.end.p0(i64 8, ptr %5) #8
  ret void

28:                                               ; preds = %17
  %29 = landingpad { ptr, i32 }
          catch ptr null
  %30 = extractvalue { ptr, i32 } %29, 0
  call void @__clang_call_terminate(ptr %30) #34
  unreachable
}

; Function Attrs: mustprogress nounwind ssp uwtable
define linkonce_odr void @_ZNSt6vectorIN6open3d13visualization14ViewParametersESaIS2_EE5clearEv(ptr noundef nonnull align 8 dereferenceable(24) %0) #0 comdat align 2 {
  %2 = alloca ptr, align 8
  store ptr %0, ptr %2, align 8, !tbaa !186
  %3 = load ptr, ptr %2, align 8
  %4 = getelementptr inbounds nuw %"struct.std::_Vector_base", ptr %3, i32 0, i32 0
  %5 = getelementptr inbounds nuw %"struct.std::_Vector_base<open3d::visualization::ViewParameters, std::allocator<open3d::visualization::ViewParameters>>::_Vector_impl_data", ptr %4, i32 0, i32 0
  %6 = load ptr, ptr %5, align 8, !tbaa !204
  call void @_ZNSt6vectorIN6open3d13visualization14ViewParametersESaIS2_EE15_M_erase_at_endEPS2_(ptr noundef nonnull align 8 dereferenceable(24) %3, ptr noundef %6) #8
  ret void
}

; Function Attrs: mustprogress nounwind ssp uwtable
define linkonce_odr void @_ZN6open3d13visualization14ViewTrajectory5ResetEv(ptr noundef nonnull align 8 dereferenceable(64) %0) #0 comdat align 2 {
  %2 = alloca ptr, align 8
  store ptr %0, ptr %2, align 8, !tbaa !276
  %3 = load ptr, ptr %2, align 8
  %4 = getelementptr inbounds nuw %"class.open3d::visualization::ViewTrajectory", ptr %3, i32 0, i32 2
  store i8 0, ptr %4, align 8, !tbaa !278
  %5 = load i32, ptr @_ZN6open3d13visualization14ViewTrajectory16INTERVAL_DEFAULTE, align 4, !tbaa !160
  %6 = getelementptr inbounds nuw %"class.open3d::visualization::ViewTrajectory", ptr %3, i32 0, i32 3
  store i32 %5, ptr %6, align 4, !tbaa !279
  %7 = getelementptr inbounds nuw %"class.open3d::visualization::ViewTrajectory", ptr %3, i32 0, i32 1
  call void @_ZNSt6vectorIN6open3d13visualization14ViewParametersESaIS2_EE5clearEv(ptr noundef nonnull align 8 dereferenceable(24) %7) #8
  ret void
}

; Function Attrs: mustprogress ssp uwtable
define noundef zeroext i1 @_ZN6open3d13visualization30ViewControlWithCustomAnimation26LoadTrajectoryFromJsonFileERKNSt7__cxx1112basic_stringIcSt11char_traitsIcESaIcEEE(ptr noundef nonnull align 16 dereferenceable(816) %0, ptr noundef nonnull align 8 dereferenceable(32) %1) #1 align 2 {
  %3 = alloca ptr, align 8
  %4 = alloca ptr, align 8
  %5 = alloca i8, align 1
  store ptr %0, ptr %3, align 8, !tbaa !4
  store ptr %1, ptr %4, align 8, !tbaa !268
  %6 = load ptr, ptr %3, align 8
  call void @llvm.lifetime.start.p0(i64 1, ptr %5) #8
  %7 = load ptr, ptr %4, align 8, !tbaa !268
  %8 = getelementptr inbounds nuw %"class.open3d::visualization::ViewControlWithCustomAnimation", ptr %6, i32 0, i32 2
  %9 = call noundef zeroext i1 @_ZN6open3d2io20ReadIJsonConvertibleERKNSt7__cxx1112basic_stringIcSt11char_traitsIcESaIcEEERNS_7utility16IJsonConvertibleE(ptr noundef nonnull align 8 dereferenceable(32) %7, ptr noundef nonnull align 8 dereferenceable(8) %8)
  %10 = zext i1 %9 to i8
  store i8 %10, ptr %5, align 1, !tbaa !138
  %11 = load i8, ptr %5, align 1, !tbaa !138, !range !155, !noundef !156
  %12 = trunc i8 %11 to i1
  br i1 %12, label %15, label %13

13:                                               ; preds = %2
  %14 = getelementptr inbounds nuw %"class.open3d::visualization::ViewControlWithCustomAnimation", ptr %6, i32 0, i32 2
  call void @_ZN6open3d13visualization14ViewTrajectory5ResetEv(ptr noundef nonnull align 8 dereferenceable(64) %14)
  br label %15

15:                                               ; preds = %13, %2
  %16 = getelementptr inbounds nuw %"class.open3d::visualization::ViewControlWithCustomAnimation", ptr %6, i32 0, i32 4
  store double 0.000000e+00, ptr %16, align 8, !tbaa !196
  %17 = getelementptr inbounds nuw %"class.open3d::visualization::ViewControlWithCustomAnimation", ptr %6, i32 0, i32 3
  store double 0.000000e+00, ptr %17, align 16, !tbaa !197
  call void @_ZN6open3d13visualization30ViewControlWithCustomAnimation28SetViewControlFromTrajectoryEv(ptr noundef nonnull align 16 dereferenceable(816) %6)
  %18 = load i8, ptr %5, align 1, !tbaa !138, !range !155, !noundef !156
  %19 = trunc i8 %18 to i1
  call void @llvm.lifetime.end.p0(i64 1, ptr %5) #8
  ret i1 %19
}