; Function Attrs: mustprogress ssp uwtable
define noundef zeroext i1 @_ZN6open3d13visualization30ViewControlWithCustomAnimation26LoadTrajectoryFromJsonFileERKNSt7__cxx1112basic_stringIcSt11char_traitsIcESaIcEEE(ptr noundef nonnull align 16 dereferenceable(816) %0, ptr noundef nonnull align 8 dereferenceable(32) %1) local_unnamed_addr #1 align 2 personality ptr @__gxx_personality_v0 {
  %3 = getelementptr inbounds nuw i8, ptr %0, i64 736
  %4 = tail call noundef zeroext i1 @_ZN6open3d2io20ReadIJsonConvertibleERKNSt7__cxx1112basic_stringIcSt11char_traitsIcESaIcEEERNS_7utility16IJsonConvertibleE(ptr noundef nonnull align 8 dereferenceable(32) %1, ptr noundef nonnull align 8 dereferenceable(8) %3)
  br i1 %4, label %_ZN6open3d13visualization14ViewTrajectory5ResetEv.exit, label %5

5:                                                ; preds = %2
  %6 = getelementptr inbounds nuw i8, ptr %0, i64 768
  store i8 0, ptr %6, align 16, !tbaa !107
  %7 = load i32, ptr @_ZN6open3d13visualization14ViewTrajectory16INTERVAL_DEFAULTE, align 4, !tbaa !74
  %8 = getelementptr inbounds nuw i8, ptr %0, i64 772
  store i32 %7, ptr %8, align 4, !tbaa !108
  %9 = getelementptr inbounds nuw i8, ptr %0, i64 744
  %10 = load ptr, ptr %9, align 8, !tbaa !12
  %11 = getelementptr inbounds nuw i8, ptr %0, i64 752
  %12 = load ptr, ptr %11, align 16, !tbaa !15
  %.not.i.i.i = icmp eq ptr %12, %10
  br i1 %.not.i.i.i, label %_ZN6open3d13visualization14ViewTrajectory5ResetEv.exit, label %.lr.ph.i.i.i.i.i

.lr.ph.i.i.i.i.i:                                 ; preds = %5, %.lr.ph.i.i.i.i.i
  %.05.i.i.i.i.i = phi ptr [ %15, %.lr.ph.i.i.i.i.i ], [ %10, %5 ]
  %13 = load ptr, ptr %.05.i.i.i.i.i, align 8, !tbaa !4
  %14 = load ptr, ptr %13, align 8
  tail call void %14(ptr noundef nonnull align 8 dereferenceable(144) %.05.i.i.i.i.i) #34
  %15 = getelementptr inbounds nuw i8, ptr %.05.i.i.i.i.i, i64 144
  %.not.i.i.i.i.i = icmp eq ptr %15, %12
  br i1 %.not.i.i.i.i.i, label %_ZSt8_DestroyIPN6open3d13visualization14ViewParametersES2_EvT_S4_RSaIT0_E.exit.i.i.i, label %.lr.ph.i.i.i.i.i, !llvm.loop !16

_ZSt8_DestroyIPN6open3d13visualization14ViewParametersES2_EvT_S4_RSaIT0_E.exit.i.i.i: ; preds = %.lr.ph.i.i.i.i.i
  store ptr %10, ptr %11, align 16, !tbaa !15
  br label %_ZN6open3d13visualization14ViewTrajectory5ResetEv.exit

_ZN6open3d13visualization14ViewTrajectory5ResetEv.exit: ; preds = %_ZSt8_DestroyIPN6open3d13visualization14ViewParametersES2_EvT_S4_RSaIT0_E.exit.i.i.i, %5, %2
  %16 = getelementptr inbounds nuw i8, ptr %0, i64 800
  tail call void @llvm.memset.p0.i64(ptr noundef nonnull align 16 dereferenceable(16) %16, i8 0, i64 16, i1 false)
  tail call void @_ZN6open3d13visualization30ViewControlWithCustomAnimation28SetViewControlFromTrajectoryEv(ptr noundef nonnull align 16 dereferenceable(816) %0)
  ret i1 %4
}